target datalayout = "e-m:e-p270:32:32-p271:32:32-p272:64:64-i64:64-i128:128-f80:128-n8:16:32:64-S128"
target triple = "x86_64-pc-linux-gnu"

%class.Symbol = type { i32, i16, [2 x i8] }

@.str = private unnamed_addr constant [3 x i8] c"%s\00", align 1

; Function Attrs: mustprogress nounwind uwtable
define linkonce_odr hidden noundef ptr @_ZNK6Symbol4baseEv(ptr noundef nonnull align 4 dereferenceable(8) %0) #1 comdat align 2 {
  %2 = alloca ptr, align 8
  store ptr %0, ptr %2, align 8
  %3 = load ptr, ptr %2, align 8
  %4 = getelementptr inbounds %class.Symbol, ptr %3, i32 0, i32 2
  %5 = getelementptr inbounds [2 x i8], ptr %4, i64 0, i64 0
  ret ptr %5
}

; Function Attrs: mustprogress nounwind uwtable
define linkonce_odr hidden noundef signext i8 @_ZNK6Symbol7char_atEi(ptr noundef nonnull align 4 dereferenceable(8) %0, i32 noundef %1) #1 comdat align 2 {
  %3 = alloca ptr, align 8
  %4 = alloca i32, align 4
  store ptr %0, ptr %3, align 8
  store i32 %1, ptr %4, align 4
  %5 = load ptr, ptr %3, align 8
  %6 = call noundef ptr @_ZNK6Symbol4baseEv(ptr noundef nonnull align 4 dereferenceable(8) %5)
  %7 = load i32, ptr %4, align 4
  %8 = sext i32 %7 to i64
  %9 = getelementptr inbounds i8, ptr %6, i64 %8
  %10 = load i8, ptr %9, align 1
  ret i8 %10
}

; Function Attrs: mustprogress nounwind uwtable
define linkonce_odr hidden noundef i32 @_Z4MIN2IiET_S0_S0_(i32 noundef %0, i32 noundef %1) #1 comdat {
  %3 = alloca i32, align 4
  %4 = alloca i32, align 4
  store i32 %0, ptr %3, align 4
  store i32 %1, ptr %4, align 4
  %5 = load i32, ptr %3, align 4
  %6 = load i32, ptr %4, align 4
  %7 = icmp slt i32 %5, %6
  br i1 %7, label %8, label %10

8:                                                ; preds = %2
  %9 = load i32, ptr %3, align 4
  br label %12

10:                                               ; preds = %2
  %11 = load i32, ptr %4, align 4
  br label %12

12:                                               ; preds = %10, %8
  %13 = phi i32 [ %9, %8 ], [ %11, %10 ]
  ret i32 %13
}

; Function Attrs: mustprogress nounwind uwtable
define linkonce_odr hidden noundef i32 @_ZNK6Symbol6lengthEv(ptr noundef nonnull align 4 dereferenceable(8) %0) #1 comdat align 2 {
  %2 = alloca ptr, align 8
  store ptr %0, ptr %2, align 8
  %3 = load ptr, ptr %2, align 8
  %4 = getelementptr inbounds %class.Symbol, ptr %3, i32 0, i32 1
  %5 = load i16, ptr %4, align 4
  %6 = zext i16 %5 to i32
  ret i32 %6
}

; Function Attrs: mustprogress nounwind uwtable
define hidden noundef ptr @_ZNK6Symbol11as_C_stringEPci(ptr noundef nonnull align 4 dereferenceable(8) %0, ptr noundef %1, i32 noundef %2) #1 align 2 {
  %4 = alloca ptr, align 8
  %5 = alloca ptr, align 8
  %6 = alloca i32, align 4
  %7 = alloca i32, align 4
  %8 = alloca i32, align 4
  store ptr %0, ptr %4, align 8
  store ptr %1, ptr %5, align 8
  store i32 %2, ptr %6, align 4
  %9 = load ptr, ptr %4, align 8
  %10 = load i32, ptr %6, align 4
  %11 = icmp sgt i32 %10, 0
  br i1 %11, label %12, label %36

12:                                               ; preds = %3
  %13 = load i32, ptr %6, align 4
  %14 = sub nsw i32 %13, 1
  %15 = call noundef i32 @_ZNK6Symbol11utf8_lengthEv(ptr noundef nonnull align 4 dereferenceable(8) %9)
  %16 = call noundef i32 @_Z4MIN2IiET_S0_S0_(i32 noundef %14, i32 noundef %15)
  store i32 %16, ptr %7, align 4
  store i32 0, ptr %8, align 4
  br label %17

17:                                               ; preds = %28, %12
  %18 = load i32, ptr %8, align 4
  %19 = load i32, ptr %7, align 4
  %20 = icmp slt i32 %18, %19
  br i1 %20, label %21, label %31

21:                                               ; preds = %17
  %22 = load i32, ptr %8, align 4
  %23 = call noundef signext i8 @_ZNK6Symbol7char_atEi(ptr noundef nonnull align 4 dereferenceable(8) %9, i32 noundef %22)
  %24 = load ptr, ptr %5, align 8
  %25 = load i32, ptr %8, align 4
  %26 = sext i32 %25 to i64
  %27 = getelementptr inbounds i8, ptr %24, i64 %26
  store i8 %23, ptr %27, align 1
  br label %28

28:                                               ; preds = %21
  %29 = load i32, ptr %8, align 4
  %30 = add nsw i32 %29, 1
  store i32 %30, ptr %8, align 4
  br label %17, !llvm.loop !8

31:                                               ; preds = %17
  %32 = load ptr, ptr %5, align 8
  %33 = load i32, ptr %7, align 4
  %34 = sext i32 %33 to i64
  %35 = getelementptr inbounds i8, ptr %32, i64 %34
  store i8 0, ptr %35, align 1
  br label %36

36:                                               ; preds = %31, %3
  %37 = load ptr, ptr %5, align 8
  ret ptr %37
}

; Function Attrs: mustprogress nounwind uwtable
define linkonce_odr hidden noundef i32 @_ZNK6Symbol11utf8_lengthEv(ptr noundef nonnull align 4 dereferenceable(8) %0) #1 comdat align 2 {
  %2 = alloca ptr, align 8
  store ptr %0, ptr %2, align 8
  %3 = load ptr, ptr %2, align 8
  %4 = call noundef i32 @_ZNK6Symbol6lengthEv(ptr noundef nonnull align 4 dereferenceable(8) %3)
  ret i32 %4
}

; Function Attrs: mustprogress nounwind uwtable
define hidden noundef ptr @_ZNK6Symbol11as_C_stringEv(ptr noundef nonnull align 4 dereferenceable(8) %0) #1 align 2 {
  %2 = alloca ptr, align 8
  %3 = alloca i32, align 4
  %4 = alloca ptr, align 8
  store ptr %0, ptr %2, align 8
  %5 = load ptr, ptr %2, align 8
  %6 = call noundef i32 @_ZNK6Symbol11utf8_lengthEv(ptr noundef nonnull align 4 dereferenceable(8) %5)
  store i32 %6, ptr %3, align 4
  %7 = load i32, ptr %3, align 4
  %8 = add nsw i32 %7, 1
  %9 = sext i32 %8 to i64
  %10 = mul i64 %9, 1
  %11 = call noundef ptr @_Z23resource_allocate_bytesmN17AllocFailStrategy13AllocFailEnumE(i64 noundef %10, i32 noundef 0)
  store ptr %11, ptr %4, align 8
  %12 = load ptr, ptr %4, align 8
  %13 = load i32, ptr %3, align 4
  %14 = add nsw i32 %13, 1
  %15 = call noundef ptr @_ZNK6Symbol11as_C_stringEPci(ptr noundef nonnull align 4 dereferenceable(8) %5, ptr noundef %12, i32 noundef %14)
  ret ptr %15
}

; Function Attrs: mustprogress nounwind uwtable
define hidden void @_ZNK6Symbol13print_utf8_onEP12outputStream(ptr noundef nonnull align 4 dereferenceable(8) %0, ptr noundef %1) #1 align 2 {
  %3 = alloca ptr, align 8
  %4 = alloca ptr, align 8
  store ptr %0, ptr %3, align 8
  store ptr %1, ptr %4, align 8
  %5 = load ptr, ptr %3, align 8
  %6 = load ptr, ptr %4, align 8
  %7 = call noundef ptr @_ZNK6Symbol11as_C_stringEv(ptr noundef nonnull align 4 dereferenceable(8) %5)
  call void (ptr, ptr, ...) @_ZN12outputStream5printEPKcz(ptr noundef nonnull align 8 dereferenceable(56) %6, ptr noundef @.str, ptr noundef %7)
  ret void
}