; Function Attrs: mustprogress nounwind uwtable
define hidden void @_ZNK6Symbol13print_utf8_onEP12outputStream(ptr nocapture noundef nonnull readonly align 4 dereferenceable(8) %0, ptr noundef %1) local_unnamed_addr #1 align 2 {
  %3 = getelementptr inbounds i8, ptr %0, i64 4
  %4 = load i16, ptr %3, align 4
  %5 = zext i16 %4 to i64
  %6 = add nuw nsw i64 %5, 1
  %7 = tail call noundef ptr @_Z23resource_allocate_bytesmN17AllocFailStrategy13AllocFailEnumE(i64 noundef %6, i32 noundef 0) #17
  %8 = load i16, ptr %3, align 4
  %9 = tail call i16 @llvm.umin.i16(i16 %4, i16 %8)
  %.not.i.i = icmp eq i16 %9, 0
  br i1 %.not.i.i, label %_ZNK6Symbol11as_C_stringEv.exit, label %.lr.ph.i.i

.lr.ph.i.i:                                       ; preds = %2
  %10 = getelementptr inbounds i8, ptr %0, i64 6
  %wide.trip.count.i.i = zext i16 %9 to i64
  br label %11

11:                                               ; preds = %11, %.lr.ph.i.i
  %indvars.iv.i.i = phi i64 [ 0, %.lr.ph.i.i ], [ %indvars.iv.next.i.i, %11 ]
  %12 = getelementptr inbounds i8, ptr %10, i64 %indvars.iv.i.i
  %13 = load i8, ptr %12, align 1
  %14 = getelementptr inbounds i8, ptr %7, i64 %indvars.iv.i.i
  store i8 %13, ptr %14, align 1
  %indvars.iv.next.i.i = add nuw nsw i64 %indvars.iv.i.i, 1
  %exitcond.not.i.i = icmp eq i64 %indvars.iv.next.i.i, %wide.trip.count.i.i
  br i1 %exitcond.not.i.i, label %_ZNK6Symbol11as_C_stringEv.exit, label %11, !llvm.loop !8

_ZNK6Symbol11as_C_stringEv.exit:                  ; preds = %11, %2
  %.pre-phi.i.i = phi i64 [ 0, %2 ], [ %wide.trip.count.i.i, %11 ]
  %15 = getelementptr inbounds i8, ptr %7, i64 %.pre-phi.i.i
  store i8 0, ptr %15, align 1
  tail call void (ptr, ptr, ...) @_ZN12outputStream5printEPKcz(ptr noundef nonnull align 8 dereferenceable(56) %1, ptr noundef nonnull @.str, ptr noundef %7) #17
  ret void
}